target datalayout = "e-m:e-p270:32:32-p271:32:32-p272:64:64-i64:64-i128:128-f80:128-n8:16:32:64-S128"
target triple = "x86_64-pc-linux-gnu"

%struct.mi_heap_s = type { ptr, [129 x ptr], [75 x %struct.mi_page_queue_s], ptr, i64, i64, [2 x i64], %struct.mi_random_cxt_s, i64, i64, i64, ptr, i8 }
%struct.mi_page_queue_s = type { ptr, ptr, i64 }
%struct.mi_random_cxt_s = type { [16 x i32], [16 x i32], i32 }

@_mi_heap_empty = external constant %struct.mi_heap_s, align 8
@_mi_heap_default = external thread_local(localdynamic) global ptr, align 8

; Function Attrs: inlinehint nounwind uwtable
define internal ptr @mi_get_default_heap() #1 {
  %1 = call align 8 ptr @llvm.threadlocal.address.p0(ptr align 8 @_mi_heap_default)
  %2 = load ptr, ptr %1, align 8, !tbaa !3
  ret ptr %2
}

; Function Attrs: inlinehint nounwind uwtable
define internal zeroext i1 @mi_heap_is_initialized(ptr noundef %0) #1 {
  %2 = alloca ptr, align 8
  store ptr %0, ptr %2, align 8, !tbaa !3
  %3 = load ptr, ptr %2, align 8, !tbaa !3
  %4 = icmp ne ptr %3, @_mi_heap_empty
  ret i1 %4
}

; Function Attrs: nounwind uwtable
define hidden ptr @mi_heap_set_default(ptr noundef %0) #0 {
  %2 = alloca ptr, align 8
  %3 = alloca ptr, align 8
  %4 = alloca ptr, align 8
  store ptr %0, ptr %3, align 8, !tbaa !3
  %5 = load ptr, ptr %3, align 8, !tbaa !3
  %6 = icmp eq ptr %5, null
  br i1 %6, label %10, label %7

7:                                                ; preds = %1
  %8 = load ptr, ptr %3, align 8, !tbaa !3
  %9 = call zeroext i1 @mi_heap_is_initialized(ptr noundef %8)
  br i1 %9, label %11, label %10

10:                                               ; preds = %7, %1
  store ptr null, ptr %2, align 8
  br label %15

11:                                               ; preds = %7
  call void @llvm.lifetime.start.p0(i64 8, ptr %4) #9
  %12 = call ptr @mi_get_default_heap()
  store ptr %12, ptr %4, align 8, !tbaa !3
  %13 = load ptr, ptr %3, align 8, !tbaa !3
  call void @_mi_heap_set_default_direct(ptr noundef %13)
  %14 = load ptr, ptr %4, align 8, !tbaa !3
  store ptr %14, ptr %2, align 8
  call void @llvm.lifetime.end.p0(i64 8, ptr %4) #9
  br label %15

15:                                               ; preds = %11, %10
  %16 = load ptr, ptr %2, align 8
  ret ptr %16
}